; Function Attrs: mustprogress uwtable
define noundef ptr @_ZN6icu_7718Normalizer2Factory11getInstanceE18UNormalizationModeR10UErrorCode(i32 noundef %0, ptr noundef nonnull align 4 dereferenceable(4) %1) local_unnamed_addr #6 align 2 {
  %3 = load i32, ptr %1, align 4, !tbaa !30
  %4 = icmp slt i32 %3, 1
  br i1 %4, label %5, label %40

5:                                                ; preds = %2
  switch i32 %0, label %38 [
    i32 2, label %6
    i32 3, label %8
    i32 4, label %21
    i32 5, label %23
    i32 6, label %36
  ]

6:                                                ; preds = %5
  %7 = tail call noundef ptr @_ZN6icu_7711Normalizer214getNFDInstanceER10UErrorCode(ptr noundef nonnull align 4 dereferenceable(4) %1)
  br label %40

8:                                                ; preds = %5
  %9 = load atomic i32, ptr @_ZN6icu_77L12nfkcInitOnceE acquire, align 4
  %.not12.i.i.i = icmp eq i32 %9, 2
  br i1 %.not12.i.i.i, label %14, label %10

10:                                               ; preds = %8
  %11 = tail call noundef signext i8 @_ZN6icu_7720umtx_initImplPreInitERNS_9UInitOnceE(ptr noundef nonnull align 4 dereferenceable(8) @_ZN6icu_77L12nfkcInitOnceE)
  %.not13.i.i.i = icmp eq i8 %11, 0
  br i1 %.not13.i.i.i, label %14, label %12

12:                                               ; preds = %10
  tail call fastcc void @_ZN6icu_77L14initSingletonsEPKcR10UErrorCode(ptr noundef nonnull @.str.1, ptr noundef nonnull align 4 dereferenceable(4) %1)
  %13 = load i32, ptr %1, align 4, !tbaa !30
  store i32 %13, ptr getelementptr inbounds nuw (i8, ptr @_ZN6icu_77L12nfkcInitOnceE, i64 4), align 4, !tbaa !33
  tail call void @_ZN6icu_7721umtx_initImplPostInitERNS_9UInitOnceE(ptr noundef nonnull align 4 dereferenceable(8) @_ZN6icu_77L12nfkcInitOnceE)
  br label %_ZN6icu_7713umtx_initOnceIPKcEEvRNS_9UInitOnceEPFvT_R10UErrorCodeES5_S7_.exit.i.i

14:                                               ; preds = %10, %8
  %15 = load i32, ptr getelementptr inbounds nuw (i8, ptr @_ZN6icu_77L12nfkcInitOnceE, i64 4), align 4, !tbaa !33
  %16 = icmp slt i32 %15, 1
  br i1 %16, label %_ZN6icu_7713umtx_initOnceIPKcEEvRNS_9UInitOnceEPFvT_R10UErrorCodeES5_S7_.exit.i.i, label %17

17:                                               ; preds = %14
  store i32 %15, ptr %1, align 4, !tbaa !30
  br label %_ZN6icu_7713umtx_initOnceIPKcEEvRNS_9UInitOnceEPFvT_R10UErrorCodeES5_S7_.exit.i.i

_ZN6icu_7713umtx_initOnceIPKcEEvRNS_9UInitOnceEPFvT_R10UErrorCodeES5_S7_.exit.i.i: ; preds = %17, %14, %12
  %18 = load ptr, ptr @_ZN6icu_77L13nfkcSingletonE, align 8, !tbaa !34
  %.not.i = icmp eq ptr %18, null
  %19 = getelementptr inbounds nuw i8, ptr %18, i64 32
  %20 = select i1 %.not.i, ptr null, ptr %19
  br label %40

21:                                               ; preds = %5
  %22 = tail call noundef ptr @_ZN6icu_7711Normalizer214getNFCInstanceER10UErrorCode(ptr noundef nonnull align 4 dereferenceable(4) %1)
  br label %40

23:                                               ; preds = %5
  %24 = load atomic i32, ptr @_ZN6icu_77L12nfkcInitOnceE acquire, align 4
  %.not12.i.i.i10 = icmp eq i32 %24, 2
  br i1 %.not12.i.i.i10, label %29, label %25

25:                                               ; preds = %23
  %26 = tail call noundef signext i8 @_ZN6icu_7720umtx_initImplPreInitERNS_9UInitOnceE(ptr noundef nonnull align 4 dereferenceable(8) @_ZN6icu_77L12nfkcInitOnceE)
  %.not13.i.i.i11 = icmp eq i8 %26, 0
  br i1 %.not13.i.i.i11, label %29, label %27

27:                                               ; preds = %25
  tail call fastcc void @_ZN6icu_77L14initSingletonsEPKcR10UErrorCode(ptr noundef nonnull @.str.1, ptr noundef nonnull align 4 dereferenceable(4) %1)
  %28 = load i32, ptr %1, align 4, !tbaa !30
  store i32 %28, ptr getelementptr inbounds nuw (i8, ptr @_ZN6icu_77L12nfkcInitOnceE, i64 4), align 4, !tbaa !33
  tail call void @_ZN6icu_7721umtx_initImplPostInitERNS_9UInitOnceE(ptr noundef nonnull align 4 dereferenceable(8) @_ZN6icu_77L12nfkcInitOnceE)
  br label %_ZN6icu_7713umtx_initOnceIPKcEEvRNS_9UInitOnceEPFvT_R10UErrorCodeES5_S7_.exit.i.i12

29:                                               ; preds = %25, %23
  %30 = load i32, ptr getelementptr inbounds nuw (i8, ptr @_ZN6icu_77L12nfkcInitOnceE, i64 4), align 4, !tbaa !33
  %31 = icmp slt i32 %30, 1
  br i1 %31, label %_ZN6icu_7713umtx_initOnceIPKcEEvRNS_9UInitOnceEPFvT_R10UErrorCodeES5_S7_.exit.i.i12, label %32

32:                                               ; preds = %29
  store i32 %30, ptr %1, align 4, !tbaa !30
  br label %_ZN6icu_7713umtx_initOnceIPKcEEvRNS_9UInitOnceEPFvT_R10UErrorCodeES5_S7_.exit.i.i12

_ZN6icu_7713umtx_initOnceIPKcEEvRNS_9UInitOnceEPFvT_R10UErrorCodeES5_S7_.exit.i.i12: ; preds = %32, %29, %27
  %33 = load ptr, ptr @_ZN6icu_77L13nfkcSingletonE, align 8, !tbaa !34
  %.not.i9 = icmp eq ptr %33, null
  %34 = getelementptr inbounds nuw i8, ptr %33, i64 8
  %35 = select i1 %.not.i9, ptr null, ptr %34
  br label %40

36:                                               ; preds = %5
  %37 = tail call noundef ptr @_ZN6icu_7718Normalizer2Factory14getFCDInstanceER10UErrorCode(ptr noundef nonnull align 4 dereferenceable(4) %1)
  br label %40

38:                                               ; preds = %5
  %39 = tail call noundef ptr @_ZN6icu_7718Normalizer2Factory15getNoopInstanceER10UErrorCode(ptr noundef nonnull align 4 dereferenceable(4) %1)
  br label %40

40:                                               ; preds = %2, %38, %36, %_ZN6icu_7713umtx_initOnceIPKcEEvRNS_9UInitOnceEPFvT_R10UErrorCodeES5_S7_.exit.i.i12, %21, %_ZN6icu_7713umtx_initOnceIPKcEEvRNS_9UInitOnceEPFvT_R10UErrorCodeES5_S7_.exit.i.i, %6
  %.0 = phi ptr [ %39, %38 ], [ %37, %36 ], [ %35, %_ZN6icu_7713umtx_initOnceIPKcEEvRNS_9UInitOnceEPFvT_R10UErrorCodeES5_S7_.exit.i.i12 ], [ %22, %21 ], [ %20, %_ZN6icu_7713umtx_initOnceIPKcEEvRNS_9UInitOnceEPFvT_R10UErrorCodeES5_S7_.exit.i.i ], [ %7, %6 ], [ null, %2 ]
  ret ptr %.0
}